; Function Attrs: nounwind uwtable
define internal noundef ptr @request_virt_sarray(ptr noundef %0, i32 noundef %1, i32 noundef %2, i32 noundef %3, i32 noundef %4, i32 noundef %5) #0 {
  %7 = getelementptr inbounds i8, ptr %0, i64 8
  %8 = load ptr, ptr %7, align 8
  %.not = icmp eq i32 %1, 1
  br i1 %.not, label %.split, label %.split24

.split24:                                         ; preds = %6
  %9 = load ptr, ptr %0, align 8
  %10 = getelementptr inbounds i8, ptr %9, i64 40
  store i32 14, ptr %10, align 8
  %11 = load ptr, ptr %0, align 8
  %12 = getelementptr inbounds i8, ptr %11, i64 44
  store i32 %1, ptr %12, align 4
  %13 = load ptr, ptr %0, align 8
  %14 = load ptr, ptr %13, align 8
  tail call void %14(ptr noundef nonnull %0) #6
  br label %.split

.split:                                           ; preds = %6, %.split24
  %.sink = phi i32 [ %1, %.split24 ], [ 1, %6 ]
  %15 = tail call ptr @alloc_small(ptr noundef nonnull %0, i32 noundef %.sink, i64 noundef 152)
  store ptr null, ptr %15, align 8
  %16 = getelementptr inbounds i8, ptr %15, i64 8
  store i32 %4, ptr %16, align 8
  %17 = getelementptr inbounds i8, ptr %15, i64 12
  store i32 %3, ptr %17, align 4
  %18 = getelementptr inbounds i8, ptr %15, i64 16
  store i32 %5, ptr %18, align 8
  %19 = getelementptr inbounds i8, ptr %15, i64 36
  store i32 %2, ptr %19, align 4
  %20 = getelementptr inbounds i8, ptr %15, i64 44
  store i32 0, ptr %20, align 4
  %21 = getelementptr inbounds i8, ptr %8, i64 136
  %22 = load ptr, ptr %21, align 8
  %23 = getelementptr inbounds i8, ptr %15, i64 48
  store ptr %22, ptr %23, align 8
  store ptr %15, ptr %21, align 8
  ret ptr %15
}